; ModuleID = '4/393.c'
source_filename = "4/393.c"
target datalayout = "e-m:e-p270:32:32-p271:32:32-p272:64:64-i64:64-f80:128-n8:16:32:64-S128"
target triple = "x86_64-pc-linux-gnu"

@.str = private unnamed_addr constant [6 x i8] c"%d %d\00", align 1
@.str.1 = private unnamed_addr constant [3 x i8] c"%d\00", align 1
@.str.2 = private unnamed_addr constant [4 x i8] c"%d\0A\00", align 1

; Function Attrs: noinline nounwind uwtable
define dso_local void @main() #0 {
  %1 = alloca i32, align 4
  %2 = alloca i32, align 4
  %3 = alloca [100 x [100 x i32]], align 16
  %4 = alloca i32, align 4
  %5 = alloca i32, align 4
  %6 = call i32 (i8*, ...) @__isoc99_scanf(i8* getelementptr inbounds ([6 x i8], [6 x i8]* @.str, i64 0, i64 0), i32* %2, i32* %1)
  store i32 0, i32* %4, align 4
  br label %7

7:                                                ; preds = %28, %0
  %8 = load i32, i32* %4, align 4
  %9 = load i32, i32* %2, align 4
  %10 = icmp slt i32 %8, %9
  br i1 %10, label %11, label %31

11:                                               ; preds = %7
  store i32 0, i32* %5, align 4
  br label %12

12:                                               ; preds = %24, %11
  %13 = load i32, i32* %5, align 4
  %14 = load i32, i32* %1, align 4
  %15 = icmp slt i32 %13, %14
  br i1 %15, label %16, label %27

16:                                               ; preds = %12
  %17 = load i32, i32* %4, align 4
  %18 = sext i32 %17 to i64
  %19 = getelementptr inbounds [100 x [100 x i32]], [100 x [100 x i32]]* %3, i64 0, i64 %18
  %20 = load i32, i32* %5, align 4
  %21 = sext i32 %20 to i64
  %22 = getelementptr inbounds [100 x i32], [100 x i32]* %19, i64 0, i64 %21
  %23 = call i32 (i8*, ...) @__isoc99_scanf(i8* getelementptr inbounds ([3 x i8], [3 x i8]* @.str.1, i64 0, i64 0), i32* %22)
  br label %24

24:                                               ; preds = %16
  %25 = load i32, i32* %5, align 4
  %26 = add nsw i32 %25, 1
  store i32 %26, i32* %5, align 4
  br label %12

27:                                               ; preds = %12
  br label %28

28:                                               ; preds = %27
  %29 = load i32, i32* %4, align 4
  %30 = add nsw i32 %29, 1
  store i32 %30, i32* %4, align 4
  br label %7

31:                                               ; preds = %7
  store i32 0, i32* %4, align 4
  store i32 0, i32* %5, align 4
  br label %32

32:                                               ; preds = %102, %31
  %33 = load i32, i32* %4, align 4
  %34 = sext i32 %33 to i64
  %35 = getelementptr inbounds [100 x [100 x i32]], [100 x [100 x i32]]* %3, i64 0, i64 %34
  %36 = load i32, i32* %5, align 4
  %37 = sext i32 %36 to i64
  %38 = getelementptr inbounds [100 x i32], [100 x i32]* %35, i64 0, i64 %37
  %39 = load i32, i32* %38, align 4
  %40 = call i32 (i8*, ...) @printf(i8* getelementptr inbounds ([4 x i8], [4 x i8]* @.str.2, i64 0, i64 0), i32 %39)
  %41 = load i32, i32* %4, align 4
  %42 = load i32, i32* %5, align 4
  %43 = add nsw i32 %41, %42
  %44 = load i32, i32* %2, align 4
  %45 = load i32, i32* %1, align 4
  %46 = add nsw i32 %44, %45
  %47 = sub nsw i32 %46, 2
  %48 = icmp eq i32 %43, %47
  br i1 %48, label %49, label %50

49:                                               ; preds = %32
  br label %103

50:                                               ; preds = %32
  %51 = load i32, i32* %5, align 4
  %52 = icmp eq i32 %51, 0
  br i1 %52, label %53, label %58

53:                                               ; preds = %50
  %54 = load i32, i32* %4, align 4
  %55 = load i32, i32* %5, align 4
  %56 = add nsw i32 %54, %55
  %57 = add nsw i32 %56, 1
  store i32 %57, i32* %5, align 4
  store i32 0, i32* %4, align 4
  br label %74

58:                                               ; preds = %50
  %59 = load i32, i32* %4, align 4
  %60 = load i32, i32* %2, align 4
  %61 = sub nsw i32 %60, 1
  %62 = icmp sge i32 %59, %61
  br i1 %62, label %63, label %68

63:                                               ; preds = %58
  %64 = load i32, i32* %4, align 4
  %65 = load i32, i32* %5, align 4
  %66 = add nsw i32 %64, %65
  %67 = add nsw i32 %66, 1
  store i32 %67, i32* %5, align 4
  store i32 0, i32* %4, align 4
  br label %73

68:                                               ; preds = %58
  %69 = load i32, i32* %4, align 4
  %70 = add nsw i32 %69, 1
  store i32 %70, i32* %4, align 4
  %71 = load i32, i32* %5, align 4
  %72 = add nsw i32 %71, -1
  store i32 %72, i32* %5, align 4
  br label %73

73:                                               ; preds = %68, %63
  br label %74

74:                                               ; preds = %73, %53
  %75 = load i32, i32* %5, align 4
  %76 = load i32, i32* %1, align 4
  %77 = sub nsw i32 %76, 1
  %78 = icmp sgt i32 %75, %77
  br i1 %78, label %79, label %92

79:                                               ; preds = %74
  %80 = load i32, i32* %4, align 4
  %81 = load i32, i32* %5, align 4
  %82 = add nsw i32 %80, %81
  %83 = add nsw i32 %82, 1
  %84 = load i32, i32* %1, align 4
  %85 = sub nsw i32 %83, %84
  store i32 %85, i32* %4, align 4
  %86 = load i32, i32* %5, align 4
  %87 = load i32, i32* %5, align 4
  %88 = add nsw i32 %87, 1
  %89 = load i32, i32* %1, align 4
  %90 = sub nsw i32 %88, %89
  %91 = sub nsw i32 %86, %90
  store i32 %91, i32* %5, align 4
  br label %92

92:                                               ; preds = %79, %74
  %93 = load i32, i32* %4, align 4
  %94 = load i32, i32* %5, align 4
  %95 = add nsw i32 %93, %94
  %96 = load i32, i32* %2, align 4
  %97 = load i32, i32* %1, align 4
  %98 = add nsw i32 %96, %97
  %99 = sub nsw i32 %98, 2
  %100 = icmp eq i32 %95, %99
  br i1 %100, label %101, label %102

101:                                              ; preds = %92
  br label %103

102:                                              ; preds = %92
  br label %32

103:                                              ; preds = %101, %49
  %104 = load i32, i32* %2, align 4
  %105 = load i32, i32* %1, align 4
  %106 = add nsw i32 %104, %105
  %107 = icmp sgt i32 %106, 2
  br i1 %107, label %108, label %117

108:                                              ; preds = %103
  %109 = load i32, i32* %4, align 4
  %110 = sext i32 %109 to i64
  %111 = getelementptr inbounds [100 x [100 x i32]], [100 x [100 x i32]]* %3, i64 0, i64 %110
  %112 = load i32, i32* %5, align 4
  %113 = sext i32 %112 to i64
  %114 = getelementptr inbounds [100 x i32], [100 x i32]* %111, i64 0, i64 %113
  %115 = load i32, i32* %114, align 4
  %116 = call i32 (i8*, ...) @printf(i8* getelementptr inbounds ([4 x i8], [4 x i8]* @.str.2, i64 0, i64 0), i32 %115)
  br label %117

117:                                              ; preds = %108, %103
  ret void
}

declare dso_local i32 @__isoc99_scanf(i8*, ...) #1

declare dso_local i32 @printf(i8*, ...) #1


!llvm.module.flags = !{!0}
!llvm.ident = !{!1}

!0 = !{i32 1, !"wchar_size", i32 4}
!1 = !{!"clang version 10.0.0-4ubuntu1 "}
